target datalayout = "e-m:e-p270:32:32-p271:32:32-p272:64:64-i64:64-i128:128-f80:128-n8:16:32:64-S128"
target triple = "x86_64-pc-linux-gnu"

%struct._lv_global_t = type { i8, i8, %struct.lv_ll_t, ptr, ptr, %struct.lv_ll_t, i8, i32, i32, ptr, %struct.lv_ll_t, ptr, %struct.lv_ll_t, ptr, ptr, i32, ptr, i8, i32, i32, ptr, i32, %struct.lv_timer_state_t, %struct.lv_anim_state_t, %struct.lv_tick_state_t, %struct._lv_draw_buf_handlers_t, %struct._lv_draw_buf_handlers_t, %struct._lv_draw_buf_handlers_t, %struct.lv_ll_t, ptr, ptr, %struct.lv_draw_global_info_t, [4 x %struct.lv_draw_sw_mask_radius_circle_dsc_t], ptr, ptr, ptr, %struct.lv_tlsf_state_t, %struct.lv_ll_t, ptr, ptr, %struct.lv_style_t, i64, ptr, i32, ptr }
%struct.lv_timer_state_t = type { %struct.lv_ll_t, i8, i8, i8, i8, i32, i8, i32, i32, i32, i32, ptr, ptr }
%struct.lv_anim_state_t = type { i8, i8, ptr, %struct.lv_ll_t }
%struct.lv_tick_state_t = type { i32, i8, ptr, ptr }
%struct._lv_draw_buf_handlers_t = type { ptr, ptr, ptr, ptr, ptr, ptr }
%struct.lv_draw_global_info_t = type { ptr, i32, i32, i32, i32, i8 }
%struct.lv_draw_sw_mask_radius_circle_dsc_t = type { ptr, ptr, ptr, ptr, i32, i32, i32 }
%struct.lv_tlsf_state_t = type { ptr, i64, i64, %struct.lv_ll_t }
%struct.lv_ll_t = type { i32, ptr, ptr }
%struct.lv_style_t = type { ptr, i32, i8 }
%struct._lv_draw_unit_t = type { ptr, ptr, i32, ptr, ptr, ptr, ptr }

@lv_global = external global %struct._lv_global_t, align 8

; Function Attrs: nounwind uwtable
define void @lv_draw_deinit() #0 {
  %1 = alloca ptr, align 8
  %2 = alloca ptr, align 8
  call void @llvm.lifetime.start.p0(i64 8, ptr %1) #5
  %3 = load ptr, ptr getelementptr inbounds nuw (%struct._lv_global_t, ptr @lv_global, i32 0, i32 31), align 8, !tbaa !3
  store ptr %3, ptr %1, align 8, !tbaa !30
  br label %4

4:                                                ; preds = %22, %0
  %5 = load ptr, ptr %1, align 8, !tbaa !30
  %6 = icmp ne ptr %5, null
  br i1 %6, label %7, label %24

7:                                                ; preds = %4
  call void @llvm.lifetime.start.p0(i64 8, ptr %2) #5
  %8 = load ptr, ptr %1, align 8, !tbaa !30
  store ptr %8, ptr %2, align 8, !tbaa !30
  %9 = load ptr, ptr %1, align 8, !tbaa !30
  %10 = getelementptr inbounds nuw %struct._lv_draw_unit_t, ptr %9, i32 0, i32 0
  %11 = load ptr, ptr %10, align 8, !tbaa !31
  store ptr %11, ptr %1, align 8, !tbaa !30
  %12 = load ptr, ptr %2, align 8, !tbaa !30
  %13 = getelementptr inbounds nuw %struct._lv_draw_unit_t, ptr %12, i32 0, i32 6
  %14 = load ptr, ptr %13, align 8, !tbaa !33
  %15 = icmp ne ptr %14, null
  br i1 %15, label %16, label %22

16:                                               ; preds = %7
  %17 = load ptr, ptr %2, align 8, !tbaa !30
  %18 = getelementptr inbounds nuw %struct._lv_draw_unit_t, ptr %17, i32 0, i32 6
  %19 = load ptr, ptr %18, align 8, !tbaa !33
  %20 = load ptr, ptr %2, align 8, !tbaa !30
  %21 = call i32 %19(ptr noundef %20)
  br label %22

22:                                               ; preds = %16, %7
  %23 = load ptr, ptr %2, align 8, !tbaa !30
  call void @lv_free(ptr noundef %23)
  call void @llvm.lifetime.end.p0(i64 8, ptr %2) #5
  br label %4, !llvm.loop !34

24:                                               ; preds = %4
  store ptr null, ptr getelementptr inbounds nuw (%struct._lv_global_t, ptr @lv_global, i32 0, i32 31), align 8, !tbaa !3
  call void @llvm.lifetime.end.p0(i64 8, ptr %1) #5
  ret void
}