; Function Attrs: nounwind uwtable
define void @lv_draw_deinit() local_unnamed_addr #1 {
  %1 = load ptr, ptr getelementptr inbounds nuw (i8, ptr @lv_global, i64 536), align 8, !tbaa !3
  %.not9 = icmp eq ptr %1, null
  br i1 %.not9, label %._crit_edge, label %.lr.ph

.lr.ph:                                           ; preds = %0, %7
  %.010 = phi ptr [ %2, %7 ], [ %1, %0 ]
  %2 = load ptr, ptr %.010, align 8, !tbaa !30
  %3 = getelementptr inbounds nuw i8, ptr %.010, i64 48
  %4 = load ptr, ptr %3, align 8, !tbaa !32
  %.not8 = icmp eq ptr %4, null
  br i1 %.not8, label %7, label %5

5:                                                ; preds = %.lr.ph
  %6 = tail call i32 %4(ptr noundef nonnull %.010) #11
  br label %7

7:                                                ; preds = %5, %.lr.ph
  tail call void @lv_free(ptr noundef nonnull %.010) #11
  %.not = icmp eq ptr %2, null
  br i1 %.not, label %._crit_edge, label %.lr.ph, !llvm.loop !33

._crit_edge:                                      ; preds = %7, %0
  store ptr null, ptr getelementptr inbounds nuw (i8, ptr @lv_global, i64 536), align 8, !tbaa !3
  ret void
}